; Function Attrs: nounwind uwtable
define dso_local ptr @PyTuple_GetSlice(ptr noundef %0, i64 noundef %1, i64 noundef %2) local_unnamed_addr #0 {
  %4 = icmp eq ptr %0, null
  br i1 %4, label %9, label %5

5:                                                ; preds = %3
  %6 = getelementptr i8, ptr %0, i64 8
  %.val = load ptr, ptr %6, align 8, !tbaa !99
  %7 = getelementptr i8, ptr %.val, i64 168
  %.val6 = load i64, ptr %7, align 8, !tbaa !100
  %8 = and i64 %.val6, 67108864
  %.not = icmp eq i64 %8, 0
  br i1 %.not, label %9, label %10

9:                                                ; preds = %5, %3
  tail call void @_PyErr_BadInternalCall(ptr noundef nonnull @.str, i32 noundef 453) #9
  br label %tuple_slice.exit

10:                                               ; preds = %5
  %spec.store.select.i = tail call i64 @llvm.smax.i64(i64 %1, i64 0)
  %11 = getelementptr i8, ptr %0, i64 16
  %.val19.i = load i64, ptr %11, align 8, !tbaa !107
  %spec.select21.i = tail call i64 @llvm.smin.i64(i64 %2, i64 %.val19.i)
  %spec.select.i = tail call i64 @llvm.smax.i64(i64 %spec.select21.i, i64 %spec.store.select.i)
  %12 = icmp slt i64 %1, 1
  %13 = icmp eq i64 %spec.select.i, %.val19.i
  %or.cond.i = select i1 %12, i1 %13, i1 false
  %.not.i = icmp eq ptr %.val, @PyTuple_Type
  %or.cond = and i1 %.not.i, %or.cond.i
  br i1 %or.cond, label %14, label %19

14:                                               ; preds = %10
  %15 = load i32, ptr %0, align 8, !tbaa !108
  %16 = icmp slt i32 %15, 0
  br i1 %16, label %tuple_slice.exit, label %17

17:                                               ; preds = %14
  %18 = add nuw i32 %15, 1
  store i32 %18, ptr %0, align 8, !tbaa !108
  br label %tuple_slice.exit

19:                                               ; preds = %10
  %20 = getelementptr inbounds nuw i8, ptr %0, i64 24
  %21 = getelementptr ptr, ptr %20, i64 %spec.store.select.i
  %22 = sub nsw i64 %spec.select.i, %spec.store.select.i
  %23 = tail call ptr @_PyTuple_FromArray(ptr noundef %21, i64 noundef %22)
  br label %tuple_slice.exit

tuple_slice.exit:                                 ; preds = %19, %17, %14, %9
  %.0 = phi ptr [ null, %9 ], [ %23, %19 ], [ %0, %14 ], [ %0, %17 ]
  ret ptr %.0
}